; Function Attrs: mustprogress uwtable
define hidden void @_ZN5ceres8internal10CudaVector6DtDxpyERKS1_S3_(ptr nocapture noundef nonnull readonly align 8 dereferenceable(48) %0, ptr nocapture noundef nonnull readonly align 8 dereferenceable(48) %1, ptr nocapture noundef nonnull readonly align 8 dereferenceable(48) %2) local_unnamed_addr #0 align 2 {
  %4 = getelementptr inbounds i8, ptr %0, i64 16
  %5 = load ptr, ptr %4, align 8
  %6 = getelementptr inbounds i8, ptr %1, i64 16
  %7 = load ptr, ptr %6, align 8
  %8 = getelementptr inbounds i8, ptr %2, i64 16
  %9 = load ptr, ptr %8, align 8
  %10 = load i32, ptr %0, align 8
  %11 = getelementptr inbounds i8, ptr %0, i64 8
  %12 = load ptr, ptr %11, align 8
  %13 = getelementptr inbounds i8, ptr %12, i64 264
  %14 = load ptr, ptr %13, align 8
  tail call void @_ZN5ceres8internal10CudaDtDxpyEPdPKdS3_iP11CUstream_st(ptr noundef %5, ptr noundef %7, ptr noundef %9, i32 noundef %10, ptr noundef %14)
  ret void
}